target datalayout = "e-m:e-p270:32:32-p271:32:32-p272:64:64-i64:64-i128:128-f80:128-n8:16:32:64-S128"
target triple = "x86_64-pc-linux-gnu"

%struct.cli_ctx_tag = type { ptr, ptr, ptr, ptr, ptr, ptr, ptr, i64, ptr, i32, i32, ptr, i32, i32, ptr, [16 x i8], ptr, ptr, ptr, ptr, ptr, ptr, %struct.timeval, i8, i8 }
%struct.timeval = type { i64, i64 }
%struct.cl_engine = type { i32, i32, i32, [2 x i32], i32, i32, i32, ptr, i32, i64, i32, i32, i64, i64, i32, i32, i32, i32, ptr, ptr, ptr, ptr, ptr, ptr, ptr, ptr, ptr, ptr, ptr, ptr, ptr, ptr, ptr, ptr, ptr, ptr, ptr, i64, ptr, %struct.crtmgr, ptr, ptr, ptr, ptr, ptr, ptr, ptr, ptr, ptr, ptr, ptr, ptr, ptr, ptr, ptr, ptr, ptr, %struct.cli_all_bc, [7 x ptr], [7 x i32], i32, i32, i32, i32, i64, i64, i64, i64, i64, ptr, ptr, ptr, ptr, ptr, ptr, ptr, ptr, ptr, i32, i32, i32, i64, i64, i64, ptr }
%struct.crtmgr = type { ptr, i32 }
%struct.cli_all_bc = type { ptr, i32, ptr, %struct.cli_environment, i32 }
%struct.cli_environment = type { i32, i32, i32, i32, i32, i32, i32, [65 x i8], [65 x i8], [65 x i8], [65 x i8], [65 x i8], [65 x i8], [65 x i8], i8, i8, i8, i8, i8, i8, i8, i8, i8 }

@.str.222 = private unnamed_addr constant [25 x i8] c"Starting cli_scanmail()\0A\00", align 1
@.str.223 = private unnamed_addr constant [9 x i8] c"mail-tmp\00", align 1
@.str.224 = private unnamed_addr constant [43 x i8] c"Mail: Can't create temporary directory %s\0A\00", align 1

; Function Attrs: nounwind uwtable
define internal i32 @cli_scanmail(ptr noundef %0) #0 {
  %2 = alloca ptr, align 8
  %3 = alloca ptr, align 8
  %4 = alloca i32, align 4
  store ptr %0, ptr %2, align 8
  store ptr null, ptr %3, align 8
  call void (ptr, ...) @cli_dbgmsg(ptr noundef @.str.222)
  %5 = load ptr, ptr %2, align 8
  %6 = getelementptr inbounds %struct.cli_ctx_tag, ptr %5, i32 0, i32 2
  %7 = load ptr, ptr %6, align 8
  %8 = call ptr @cli_gentemp_with_prefix(ptr noundef %7, ptr noundef @.str.223)
  store ptr %8, ptr %3, align 8
  %9 = icmp eq ptr null, %8
  br i1 %9, label %10, label %11

10:                                               ; preds = %1
  store i32 20, ptr %4, align 4
  br label %32

11:                                               ; preds = %1
  %12 = load ptr, ptr %3, align 8
  %13 = call i32 @mkdir(ptr noundef %12, i32 noundef 448) #11
  %14 = icmp ne i32 %13, 0
  br i1 %14, label %15, label %17

15:                                               ; preds = %11
  %16 = load ptr, ptr %3, align 8
  call void (ptr, ...) @cli_dbgmsg(ptr noundef @.str.224, ptr noundef %16)
  store i32 18, ptr %4, align 4
  br label %32

17:                                               ; preds = %11
  %18 = load ptr, ptr %3, align 8
  %19 = load ptr, ptr %2, align 8
  %20 = call i32 @cli_mbox(ptr noundef %18, ptr noundef %19)
  store i32 %20, ptr %4, align 4
  %21 = load i32, ptr %4, align 4
  %22 = icmp ne i32 0, %21
  br i1 %22, label %23, label %24

23:                                               ; preds = %17
  br label %32

24:                                               ; preds = %17
  %25 = load ptr, ptr %3, align 8
  %26 = load ptr, ptr %2, align 8
  %27 = call i32 @cli_magic_scan_dir(ptr noundef %25, ptr noundef %26, i32 noundef 0)
  store i32 %27, ptr %4, align 4
  %28 = load i32, ptr %4, align 4
  %29 = icmp ne i32 0, %28
  br i1 %29, label %30, label %31

30:                                               ; preds = %24
  br label %32

31:                                               ; preds = %24
  br label %32

32:                                               ; preds = %31, %30, %23, %15, %10
  %33 = load ptr, ptr %3, align 8
  %34 = icmp ne ptr null, %33
  br i1 %34, label %35, label %47

35:                                               ; preds = %32
  %36 = load ptr, ptr %2, align 8
  %37 = getelementptr inbounds %struct.cli_ctx_tag, ptr %36, i32 0, i32 6
  %38 = load ptr, ptr %37, align 8
  %39 = getelementptr inbounds %struct.cl_engine, ptr %38, i32 0, i32 8
  %40 = load i32, ptr %39, align 8
  %41 = icmp ne i32 %40, 0
  br i1 %41, label %45, label %42

42:                                               ; preds = %35
  %43 = load ptr, ptr %3, align 8
  %44 = call i32 @cli_rmdirs(ptr noundef %43)
  br label %45

45:                                               ; preds = %42, %35
  %46 = load ptr, ptr %3, align 8
  call void @free(ptr noundef %46) #11
  br label %47

47:                                               ; preds = %45, %32
  %48 = load i32, ptr %4, align 4
  ret i32 %48
}