; Function Attrs: nounwind uwtable
define internal fastcc i32 @cli_scanmail(ptr noundef %0) unnamed_addr #0 {
  tail call void (ptr, ...) @cli_dbgmsg(ptr noundef nonnull @.str.222) #16
  %2 = getelementptr inbounds nuw i8, ptr %0, i64 16
  %3 = load ptr, ptr %2, align 8
  %4 = tail call ptr @cli_gentemp_with_prefix(ptr noundef %3, ptr noundef nonnull @.str.223) #16
  %5 = icmp eq ptr %4, null
  br i1 %5, label %21, label %6

6:                                                ; preds = %1
  %7 = tail call i32 @mkdir(ptr noundef nonnull %4, i32 noundef 448) #16
  %.not = icmp eq i32 %7, 0
  br i1 %.not, label %9, label %8

8:                                                ; preds = %6
  tail call void (ptr, ...) @cli_dbgmsg(ptr noundef nonnull @.str.224, ptr noundef nonnull %4) #16
  br label %13

9:                                                ; preds = %6
  %10 = tail call i32 @cli_mbox(ptr noundef nonnull %4, ptr noundef nonnull %0) #16
  %.not14 = icmp eq i32 %10, 0
  br i1 %.not14, label %11, label %13

11:                                               ; preds = %9
  %12 = tail call i32 @cli_magic_scan_dir(ptr noundef nonnull %4, ptr noundef nonnull %0, i32 noundef 0)
  br label %13

13:                                               ; preds = %11, %9, %8
  %.0.ph = phi i32 [ %12, %11 ], [ %10, %9 ], [ 18, %8 ]
  %14 = getelementptr inbounds nuw i8, ptr %0, i64 48
  %15 = load ptr, ptr %14, align 8
  %16 = getelementptr inbounds nuw i8, ptr %15, i64 40
  %17 = load i32, ptr %16, align 8
  %.not16 = icmp eq i32 %17, 0
  br i1 %.not16, label %18, label %20

18:                                               ; preds = %13
  %19 = tail call i32 @cli_rmdirs(ptr noundef nonnull %4) #16
  br label %20

20:                                               ; preds = %18, %13
  tail call void @free(ptr noundef nonnull %4) #16
  br label %21

21:                                               ; preds = %1, %20
  %.019 = phi i32 [ %.0.ph, %20 ], [ 20, %1 ]
  ret i32 %.019
}